target datalayout = "e-m:e-p270:32:32-p271:32:32-p272:64:64-i64:64-i128:128-f80:128-n8:16:32:64-S128"
target triple = "x86_64-pc-linux-gnu"

@.str = private unnamed_addr constant [5 x i8] c"NULL\00", align 1
@.str.1 = private unnamed_addr constant [10 x i8] c"ziplist.c\00", align 1

; Function Attrs: nounwind uwtable
define dso_local i64 @zipLoadInteger(ptr noundef %0, i8 noundef zeroext %1) #0 {
  %3 = alloca ptr, align 8
  %4 = alloca i8, align 1
  %5 = alloca i16, align 2
  %6 = alloca i32, align 4
  %7 = alloca i64, align 8
  %8 = alloca i64, align 8
  store ptr %0, ptr %3, align 8, !tbaa !5
  store i8 %1, ptr %4, align 1, !tbaa !14
  call void @llvm.lifetime.start.p0(i64 2, ptr %5) #11
  call void @llvm.lifetime.start.p0(i64 4, ptr %6) #11
  call void @llvm.lifetime.start.p0(i64 8, ptr %7) #11
  call void @llvm.lifetime.start.p0(i64 8, ptr %8) #11
  store i64 0, ptr %8, align 8, !tbaa !10
  %9 = load i8, ptr %4, align 1, !tbaa !14
  %10 = zext i8 %9 to i32
  %11 = icmp eq i32 %10, 254
  br i1 %11, label %12, label %17

12:                                               ; preds = %2
  %13 = load ptr, ptr %3, align 8, !tbaa !5
  %14 = getelementptr inbounds i8, ptr %13, i64 0
  %15 = load i8, ptr %14, align 1, !tbaa !14
  %16 = sext i8 %15 to i64
  store i64 %16, ptr %8, align 8, !tbaa !10
  br label %70

17:                                               ; preds = %2
  %18 = load i8, ptr %4, align 1, !tbaa !14
  %19 = zext i8 %18 to i32
  %20 = icmp eq i32 %19, 192
  br i1 %20, label %21, label %25

21:                                               ; preds = %17
  %22 = load ptr, ptr %3, align 8, !tbaa !5
  call void @llvm.memcpy.p0.p0.i64(ptr align 2 %5, ptr align 1 %22, i64 2, i1 false)
  %23 = load i16, ptr %5, align 2, !tbaa !19
  %24 = sext i16 %23 to i64
  store i64 %24, ptr %8, align 8, !tbaa !10
  br label %69

25:                                               ; preds = %17
  %26 = load i8, ptr %4, align 1, !tbaa !14
  %27 = zext i8 %26 to i32
  %28 = icmp eq i32 %27, 208
  br i1 %28, label %29, label %33

29:                                               ; preds = %25
  %30 = load ptr, ptr %3, align 8, !tbaa !5
  call void @llvm.memcpy.p0.p0.i64(ptr align 4 %6, ptr align 1 %30, i64 4, i1 false)
  %31 = load i32, ptr %6, align 4, !tbaa !12
  %32 = sext i32 %31 to i64
  store i64 %32, ptr %8, align 8, !tbaa !10
  br label %68

33:                                               ; preds = %25
  %34 = load i8, ptr %4, align 1, !tbaa !14
  %35 = zext i8 %34 to i32
  %36 = icmp eq i32 %35, 240
  br i1 %36, label %37, label %43

37:                                               ; preds = %33
  store i32 0, ptr %6, align 4, !tbaa !12
  %38 = getelementptr inbounds i8, ptr %6, i64 1
  %39 = load ptr, ptr %3, align 8, !tbaa !5
  call void @llvm.memcpy.p0.p0.i64(ptr align 1 %38, ptr align 1 %39, i64 3, i1 false)
  %40 = load i32, ptr %6, align 4, !tbaa !12
  %41 = ashr i32 %40, 8
  %42 = sext i32 %41 to i64
  store i64 %42, ptr %8, align 8, !tbaa !10
  br label %67

43:                                               ; preds = %33
  %44 = load i8, ptr %4, align 1, !tbaa !14
  %45 = zext i8 %44 to i32
  %46 = icmp eq i32 %45, 224
  br i1 %46, label %47, label %50

47:                                               ; preds = %43
  %48 = load ptr, ptr %3, align 8, !tbaa !5
  call void @llvm.memcpy.p0.p0.i64(ptr align 8 %7, ptr align 1 %48, i64 8, i1 false)
  %49 = load i64, ptr %7, align 8, !tbaa !10
  store i64 %49, ptr %8, align 8, !tbaa !10
  br label %66

50:                                               ; preds = %43
  %51 = load i8, ptr %4, align 1, !tbaa !14
  %52 = zext i8 %51 to i32
  %53 = icmp sge i32 %52, 241
  br i1 %53, label %54, label %64

54:                                               ; preds = %50
  %55 = load i8, ptr %4, align 1, !tbaa !14
  %56 = zext i8 %55 to i32
  %57 = icmp sle i32 %56, 253
  br i1 %57, label %58, label %64

58:                                               ; preds = %54
  %59 = load i8, ptr %4, align 1, !tbaa !14
  %60 = zext i8 %59 to i32
  %61 = and i32 %60, 15
  %62 = sub nsw i32 %61, 1
  %63 = sext i32 %62 to i64
  store i64 %63, ptr %8, align 8, !tbaa !10
  br label %65

64:                                               ; preds = %54, %50
  call void @_serverAssert(ptr noundef @.str, ptr noundef @.str.1, i32 noundef 604)
  call void @abort() #12
  unreachable

65:                                               ; preds = %58
  br label %66

66:                                               ; preds = %65, %47
  br label %67

67:                                               ; preds = %66, %37
  br label %68

68:                                               ; preds = %67, %29
  br label %69

69:                                               ; preds = %68, %21
  br label %70

70:                                               ; preds = %69, %12
  %71 = load i64, ptr %8, align 8, !tbaa !10
  call void @llvm.lifetime.end.p0(i64 8, ptr %8) #11
  call void @llvm.lifetime.end.p0(i64 8, ptr %7) #11
  call void @llvm.lifetime.end.p0(i64 4, ptr %6) #11
  call void @llvm.lifetime.end.p0(i64 2, ptr %5) #11
  ret i64 %71
}