; Function Attrs: nounwind uwtable
define dso_local i64 @zipLoadInteger(ptr noundef readonly captures(none) %0, i8 noundef zeroext %1) local_unnamed_addr #5 {
  switch i8 %1, label %13 [
    i8 -2, label %3
    i8 -64, label %6
    i8 -48, label %8
    i8 -16, label %10
    i8 -32, label %12
  ]

3:                                                ; preds = %2
  %4 = load i8, ptr %0, align 1, !tbaa !9
  %5 = sext i8 %4 to i64
  br label %20

6:                                                ; preds = %2
  %.0.copyload7 = load i16, ptr %0, align 1
  %7 = sext i16 %.0.copyload7 to i64
  br label %20

8:                                                ; preds = %2
  %.0.copyload4 = load i32, ptr %0, align 1
  %9 = sext i32 %.0.copyload4 to i64
  br label %20

10:                                               ; preds = %2
  %.1.copyload = load i24, ptr %0, align 1
  %11 = sext i24 %.1.copyload to i64
  br label %20

12:                                               ; preds = %2
  %.0.copyload = load i64, ptr %0, align 1
  br label %20

13:                                               ; preds = %2
  %14 = add i8 %1, 15
  %or.cond = icmp ult i8 %14, 14
  br i1 %or.cond, label %15, label %19

15:                                               ; preds = %13
  %16 = and i8 %1, 15
  %17 = zext nneg i8 %16 to i64
  %18 = add nsw i64 %17, -1
  br label %20

19:                                               ; preds = %13
  tail call void @_serverAssert(ptr noundef nonnull @.str, ptr noundef nonnull @.str.1, i32 noundef 604) #17
  tail call void @abort() #18
  unreachable

20:                                               ; preds = %6, %10, %15, %12, %8, %3
  %.0 = phi i64 [ %5, %3 ], [ %7, %6 ], [ %9, %8 ], [ %11, %10 ], [ %.0.copyload, %12 ], [ %18, %15 ]
  ret i64 %.0
}